(dp0
Vengine
p1
S'pdflatex'
p2
sVpackages
p3
c__builtin__
set
p4
((lp5
Vcolor
p6
aVexameIST
p7
aVinputenc
p8
aVverbatim
p9
aVfancyhdr
p10
atp11
Rp12
sVfiles_with_guttermarks
p13
g4
((lp14
V/Users/ars/Gdrive/home/disciplinas/as/2015/exams/20160711Exam/./exame-20160711-companion.tex
p15
aV/Users/ars/Gdrive/home/disciplinas/as/2015/exams/20160711Exam/../perguntas-escolha-multipla-2016.tex
p16
aS'exame-20160711-companion.tex'
p17
aV/Users/ars/Gdrive/home/disciplinas/as/2015/exams/20160711Exam/macros.tex
p18
atp19
Rp20
sVsynctex
p21
I01
s.