(dp0
S'engine'
p1
S'pdflatex'
p2
sS'packages'
p3
c__builtin__
set
p4
((lp5
S'subfigure'
p6
aS'verbatim'
p7
aS'fancyhdr'
p8
aS'color'
p9
aS'graphicx'
p10
aS'float'
p11
aS'exameIST'
p12
aS'placeins'
p13
aS'inputenc'
p14
atp15
Rp16
sS'files_with_guttermarks'
p17
g4
((lp18
S'/Users/ars/home/disciplinas/as/2014/exams/exam20150127/macros.tex'
p19
aS'exame-20150109.tex'
p20
aS'/Users/ars/home/disciplinas/as/2014/exams/exam20150127/./exame-20150109.tex'
p21
atp22
Rp23
sS'synctex'
p24
I01
s.