(dp0
S'engine'
p1
Vpdflatex
p2
sS'packages'
p3
c__builtin__
set
p4
((lp5
Vcolor
p6
aVexameIST
p7
aVinputenc
p8
aVverbatim
p9
aVfancyhdr
p10
atp11
Rp12
sS'files_with_guttermarks'
p13
g4
((lp14
S'exame-20150127-companion-B.tex'
p15
aS'/Users/ars/home/disciplinas/as/2014/exams/exam20150127/macros.tex'
p16
atp17
Rp18
sS'synctex'
p19
I01
s.