(dp0
S'engine'
p1
S'pdflatex'
p2
sS'packages'
p3
c__builtin__
set
p4
((lp5
S'color'
p6
aS'exameIST'
p7
aS'inputenc'
p8
aS'verbatim'
p9
aS'fancyhdr'
p10
atp11
Rp12
sS'files_with_guttermarks'
p13
g4
((lp14
S'/Users/ars/home/disciplinas/as/2014/exams/exam20150127/../perguntas-escolha-multipla-2015.tex'
p15
aS'/Users/ars/home/disciplinas/as/2014/exams/exam20150127/macros.tex'
p16
aS'/Users/ars/home/disciplinas/as/2014/exams/exam20150127/./exame-20150109-companion-A.tex'
p17
aS'exame-20150109-companion-A.tex'
p18
atp19
Rp20
sS'synctex'
p21
I01
s.