(dp0
S'engine'
p1
S'pdflatex'
p2
sS'packages'
p3
c__builtin__
set
p4
((lp5
S'color'
p6
aS'exameIST'
p7
aS'inputenc'
p8
aS'verbatim'
p9
aS'fancyhdr'
p10
atp11
Rp12
sS'files_with_guttermarks'
p13
g4
((lp14
S'exame-20150109-companion-B.tex'
p15
aS'/Users/ars/home/disciplinas/as/2014/exams/exam20150109/./exame-20150109-companion-B.tex'
p16
aS'/Users/ars/home/disciplinas/as/2014/exams/exam20150109/macros.tex'
p17
atp18
Rp19
sS'synctex'
p20
I01
s.