(dp0
Vengine
p1
S'pdflatex'
p2
sVpackages
p3
c__builtin__
set
p4
((lp5
Vsubfigure
p6
aVverbatim
p7
aVfancyhdr
p8
aVcolor
p9
aVgraphicx
p10
aVfloat
p11
aVexameIST
p12
aVplaceins
p13
aVinputenc
p14
atp15
Rp16
sVfiles_with_guttermarks
p17
g4
((lp18
S'exame-20150108.tex'
p19
aV/Users/ars/Gdrive/home/disciplinas/as/2015/exams/20160108Exam/macros.tex
p20
atp21
Rp22
sVsynctex
p23
I01
s.