(dp0
S'engine'
p1
S'pdflatex'
p2
sS'packages'
p3
c__builtin__
set
p4
((lp5
S'color'
p6
aS'exameIST'
p7
aS'inputenc'
p8
aS'verbatim'
p9
aS'fancyhdr'
p10
atp11
Rp12
sS'files_with_guttermarks'
p13
g4
((lp14
S'/Users/ars/home/disciplinas/as/2014/exams/./exame-20140109-companion.tex'
p15
aS'exame-20140109-companion.tex'
p16
atp17
Rp18
sS'synctex'
p19
I01
s.