(dp0
S'engine'
p1
S'pdflatex'
p2
sS'packages'
p3
c__builtin__
set
p4
((lp5
S'exameIST'
p6
aS'inputenc'
p7
atp8
Rp9
sS'files_with_guttermarks'
p10
g4
((lp11
S'/Users/ars/home/disciplinas/as/2014/exams/macros.tex'
p12
aS'/Users/ars/home/disciplinas/as/2014/exams/./exame-20140109.tex'
p13
aS'exame-20140109.tex'
p14
atp15
Rp16
sS'synctex'
p17
I01
s.