(dp0
S'engine'
p1
S'pdflatex'
p2
sS'packages'
p3
c__builtin__
set
p4
((lp5
tp6
Rp7
sS'files_with_guttermarks'
p8
g4
((lp9
S'/Users/ars/home/disciplinas/as/2014/exams/./perguntas-escolha-multipla-2015.tex'
p10
aS'perguntas-escolha-multipla-2015.tex'
p11
atp12
Rp13
sS'synctex'
p14
I01
s.